(lp0
S'poi'
p1
aS'salary'
p2
aS'bonus'
p3
aS'deferred_income'
p4
aS'director_fees'
p5
aS'exercised_stock_options'
p6
aS'expenses'
p7
aS'fraction_from_poi'
p8
aS'fraction_to_poi'
p9
aS'loan_advances'
p10
aS'long_term_incentive'
p11
aS'restricted_stock'
p12
aS'total_payments'
p13
aS'total_stock_value'
p14
a.